; Function Attrs: mustprogress uwtable
define noundef zeroext i1 @_ZNK4cvc58internal8TypeNode14isInstantiatedEv(ptr noundef nonnull readonly align 8 captures(none) dereferenceable(8) %0) local_unnamed_addr #4 align 2 {
  %2 = tail call noundef zeroext i1 @_ZNK4cvc58internal8TypeNode22isInstantiatedDatatypeEv(ptr noundef nonnull align 8 dereferenceable(8) %0)
  br i1 %2, label %9, label %3

3:                                                ; preds = %1
  %4 = load ptr, ptr %0, align 8, !tbaa !3
  %5 = getelementptr inbounds nuw i8, ptr %4, i64 8
  %6 = load i64, ptr %5, align 8
  %7 = and i64 %6, 1023
  %8 = icmp eq i64 %7, 2
  br label %9

9:                                                ; preds = %3, %1
  %10 = phi i1 [ true, %1 ], [ %8, %3 ]
  ret i1 %10
}